target datalayout = "e-m:e-p270:32:32-p271:32:32-p272:64:64-i64:64-i128:128-f80:128-n8:16:32:64-S128"
target triple = "x86_64-pc-linux-gnu"

; Function Attrs: nounwind uwtable
define internal void @draw_sample_point_gray(ptr noundef %0, i32 noundef %1, i32 noundef %2, ptr noundef %3, ptr noundef %4, i32 noundef %5) #1 {
  %7 = alloca ptr, align 8
  %8 = alloca i32, align 4
  %9 = alloca i32, align 4
  %10 = alloca ptr, align 8
  %11 = alloca ptr, align 8
  %12 = alloca i32, align 4
  store ptr %0, ptr %7, align 8, !tbaa !69
  store i32 %1, ptr %8, align 4, !tbaa !49
  store i32 %2, ptr %9, align 4, !tbaa !49
  store ptr %3, ptr %10, align 8, !tbaa !92
  store ptr %4, ptr %11, align 8, !tbaa !69
  store i32 %5, ptr %12, align 4, !tbaa !49
  %13 = load i32, ptr %12, align 4, !tbaa !49
  %14 = icmp sge i32 %13, 0
  br i1 %14, label %15, label %34

15:                                               ; preds = %6
  %16 = load i32, ptr %12, align 4, !tbaa !49
  %17 = load i32, ptr %8, align 4, !tbaa !49
  %18 = icmp slt i32 %16, %17
  br i1 %18, label %19, label %34

19:                                               ; preds = %15
  %20 = load ptr, ptr %11, align 8, !tbaa !69
  %21 = getelementptr inbounds i8, ptr %20, i64 0
  %22 = load i8, ptr %21, align 1, !tbaa !89
  %23 = zext i8 %22 to i32
  %24 = load ptr, ptr %7, align 8, !tbaa !69
  %25 = load i32, ptr %12, align 4, !tbaa !49
  %26 = load i32, ptr %9, align 4, !tbaa !49
  %27 = mul nsw i32 %25, %26
  %28 = sext i32 %27 to i64
  %29 = getelementptr inbounds i8, ptr %24, i64 %28
  %30 = load i8, ptr %29, align 1, !tbaa !89
  %31 = zext i8 %30 to i32
  %32 = add nsw i32 %31, %23
  %33 = trunc i32 %32 to i8
  store i8 %33, ptr %29, align 1, !tbaa !89
  br label %34

34:                                               ; preds = %19, %15, %6
  ret void
}