; Function Attrs: mustprogress nofree norecurse nosync nounwind willreturn memory(argmem: readwrite) uwtable
define internal void @draw_sample_point_gray(ptr noundef captures(none) %0, i32 noundef %1, i32 noundef %2, ptr readnone captures(none) %3, ptr noundef readonly captures(none) %4, i32 noundef %5) #6 {
  %7 = icmp sgt i32 %5, -1
  %8 = icmp slt i32 %5, %1
  %or.cond = and i1 %7, %8
  br i1 %or.cond, label %9, label %16

9:                                                ; preds = %6
  %10 = load i8, ptr %4, align 1, !tbaa !96
  %11 = mul nsw i32 %5, %2
  %12 = sext i32 %11 to i64
  %13 = getelementptr inbounds i8, ptr %0, i64 %12
  %14 = load i8, ptr %13, align 1, !tbaa !96
  %15 = add i8 %14, %10
  store i8 %15, ptr %13, align 1, !tbaa !96
  br label %16

16:                                               ; preds = %9, %6
  ret void
}